
/home/ucas/pocc/Verilog/nexus-am/tests/myAMapp/build/bug-mips32-npc.elf:     file format elf32-tradlittlemips


Disassembly of section .text:

80000000 <_start>:
80000000:	0000f025 	move	s8,zero
80000004:	3c1d8001 	lui	sp,0x8001
80000008:	27bd9000 	addiu	sp,sp,-28672
8000000c:	0c000104 	jal	80000410 <_trm_init>
80000010:	00000000 	nop
	...

80000020 <nemu_assert>:
80000020:	27bdffe8 	addiu	sp,sp,-24
80000024:	afbf0014 	sw	ra,20(sp)
80000028:	afbe0010 	sw	s8,16(sp)
8000002c:	03a0f025 	move	s8,sp
80000030:	afc40018 	sw	a0,24(s8)
80000034:	8fc20018 	lw	v0,24(s8)
80000038:	14400004 	bnez	v0,8000004c <nemu_assert+0x2c>
8000003c:	00000000 	nop
80000040:	24040001 	li	a0,1
80000044:	0c000100 	jal	80000400 <_etext>
80000048:	00000000 	nop
8000004c:	00000000 	nop
80000050:	03c0e825 	move	sp,s8
80000054:	8fbf0014 	lw	ra,20(sp)
80000058:	8fbe0010 	lw	s8,16(sp)
8000005c:	27bd0018 	addiu	sp,sp,24
80000060:	03e00008 	jr	ra
80000064:	00000000 	nop

80000068 <success_nx_bit>:
80000068:	27bdfff8 	addiu	sp,sp,-8
8000006c:	afbe0004 	sw	s8,4(sp)
80000070:	03a0f025 	move	s8,sp
80000074:	3c08aaaa 	lui	t0,0xaaaa
80000078:	3508aaaa 	ori	t0,t0,0xaaaa
8000007c:	3c098000 	lui	t1,0x8000
80000080:	25298f20 	addiu	t1,t1,-28896
80000084:	ad280000 	sw	t0,0(t1)
80000088:	08000100 	j	80000400 <_etext>
8000008c:	00000000 	nop
80000090:	00000000 	nop
80000094:	03c0e825 	move	sp,s8
80000098:	8fbe0004 	lw	s8,4(sp)
8000009c:	27bd0008 	addiu	sp,sp,8
800000a0:	03e00008 	jr	ra
800000a4:	00000000 	nop

800000a8 <success_shadow_stack>:
800000a8:	27bdfff8 	addiu	sp,sp,-8
800000ac:	afbe0004 	sw	s8,4(sp)
800000b0:	03a0f025 	move	s8,sp
800000b4:	3c08bbbb 	lui	t0,0xbbbb
800000b8:	3508bbbb 	ori	t0,t0,0xbbbb
800000bc:	3c098000 	lui	t1,0x8000
800000c0:	25298f24 	addiu	t1,t1,-28892
800000c4:	ad280000 	sw	t0,0(t1)
800000c8:	08000100 	j	80000400 <_etext>
800000cc:	00000000 	nop
800000d0:	00000000 	nop
800000d4:	03c0e825 	move	sp,s8
800000d8:	8fbe0004 	lw	s8,4(sp)
800000dc:	27bd0008 	addiu	sp,sp,8
800000e0:	03e00008 	jr	ra
800000e4:	00000000 	nop

800000e8 <success_cfi>:
800000e8:	27bdfff8 	addiu	sp,sp,-8
800000ec:	afbe0004 	sw	s8,4(sp)
800000f0:	03a0f025 	move	s8,sp
800000f4:	3c08cccc 	lui	t0,0xcccc
800000f8:	3508cccc 	ori	t0,t0,0xcccc
800000fc:	3c098000 	lui	t1,0x8000
80000100:	25298f28 	addiu	t1,t1,-28888
80000104:	ad280000 	sw	t0,0(t1)
80000108:	08000100 	j	80000400 <_etext>
8000010c:	00000000 	nop
80000110:	00000000 	nop
80000114:	03c0e825 	move	sp,s8
80000118:	8fbe0004 	lw	s8,4(sp)
8000011c:	27bd0008 	addiu	sp,sp,8
80000120:	03e00008 	jr	ra
80000124:	00000000 	nop

80000128 <success>:
80000128:	27bdfff8 	addiu	sp,sp,-8
8000012c:	afbe0004 	sw	s8,4(sp)
80000130:	03a0f025 	move	s8,sp
80000134:	3c086666 	lui	t0,0x6666
80000138:	35086666 	ori	t0,t0,0x6666
8000013c:	3c098000 	lui	t1,0x8000
80000140:	25298f00 	addiu	t1,t1,-28928
80000144:	ad280000 	sw	t0,0(t1)
80000148:	00000000 	nop
8000014c:	03c0e825 	move	sp,s8
80000150:	8fbe0004 	lw	s8,4(sp)
80000154:	27bd0008 	addiu	sp,sp,8
80000158:	03e00008 	jr	ra
8000015c:	00000000 	nop

80000160 <fail>:
80000160:	27bdfff8 	addiu	sp,sp,-8
80000164:	afbe0004 	sw	s8,4(sp)
80000168:	03a0f025 	move	s8,sp
8000016c:	3c08ffff 	lui	t0,0xffff
80000170:	3508ffff 	ori	t0,t0,0xffff
80000174:	3c098000 	lui	t1,0x8000
80000178:	25298f04 	addiu	t1,t1,-28924
8000017c:	ad280000 	sw	t0,0(t1)
80000180:	00000000 	nop
80000184:	03c0e825 	move	sp,s8
80000188:	8fbe0004 	lw	s8,4(sp)
8000018c:	27bd0008 	addiu	sp,sp,8
80000190:	03e00008 	jr	ra
80000194:	00000000 	nop

80000198 <get_input>:
80000198:	27bdfff0 	addiu	sp,sp,-16
8000019c:	afbe000c 	sw	s8,12(sp)
800001a0:	03a0f025 	move	s8,sp
800001a4:	afc40010 	sw	a0,16(s8)
800001a8:	afc50014 	sw	a1,20(s8)
800001ac:	afc00000 	sw	zero,0(s8)
800001b0:	8fc20000 	lw	v0,0(s8)
800001b4:	8fc30010 	lw	v1,16(s8)
800001b8:	00621021 	addu	v0,v1,v0
800001bc:	80420000 	lb	v0,0(v0)
800001c0:	14400016 	bnez	v0,8000021c <get_input+0x84>
800001c4:	00000000 	nop
800001c8:	8fc20000 	lw	v0,0(s8)
800001cc:	24420001 	addiu	v0,v0,1
800001d0:	8fc30010 	lw	v1,16(s8)
800001d4:	00621021 	addu	v0,v1,v0
800001d8:	80420000 	lb	v0,0(v0)
800001dc:	1440000f 	bnez	v0,8000021c <get_input+0x84>
800001e0:	00000000 	nop
800001e4:	8fc20000 	lw	v0,0(s8)
800001e8:	24420002 	addiu	v0,v0,2
800001ec:	8fc30010 	lw	v1,16(s8)
800001f0:	00621021 	addu	v0,v1,v0
800001f4:	80420000 	lb	v0,0(v0)
800001f8:	14400008 	bnez	v0,8000021c <get_input+0x84>
800001fc:	00000000 	nop
80000200:	8fc20000 	lw	v0,0(s8)
80000204:	24420003 	addiu	v0,v0,3
80000208:	8fc30010 	lw	v1,16(s8)
8000020c:	00621021 	addu	v0,v1,v0
80000210:	80420000 	lb	v0,0(v0)
80000214:	1040000e 	beqz	v0,80000250 <get_input+0xb8>
80000218:	00000000 	nop
8000021c:	8fc20000 	lw	v0,0(s8)
80000220:	8fc30010 	lw	v1,16(s8)
80000224:	00621821 	addu	v1,v1,v0
80000228:	8fc20000 	lw	v0,0(s8)
8000022c:	8fc40014 	lw	a0,20(s8)
80000230:	00821021 	addu	v0,a0,v0
80000234:	80630000 	lb	v1,0(v1)
80000238:	a0430000 	sb	v1,0(v0)
8000023c:	8fc20000 	lw	v0,0(s8)
80000240:	24420001 	addiu	v0,v0,1
80000244:	afc20000 	sw	v0,0(s8)
80000248:	1000ffd9 	b	800001b0 <get_input+0x18>
8000024c:	00000000 	nop
80000250:	00000000 	nop
80000254:	8fc20000 	lw	v0,0(s8)
80000258:	03c0e825 	move	sp,s8
8000025c:	8fbe000c 	lw	s8,12(sp)
80000260:	27bd0010 	addiu	sp,sp,16
80000264:	03e00008 	jr	ra
80000268:	00000000 	nop

8000026c <copy>:
8000026c:	27bdffc8 	addiu	sp,sp,-56
80000270:	afbf0034 	sw	ra,52(sp)
80000274:	afbe0030 	sw	s8,48(sp)
80000278:	03a0f025 	move	s8,sp
8000027c:	afc40038 	sw	a0,56(s8)
80000280:	27c20020 	addiu	v0,s8,32
80000284:	00402825 	move	a1,v0
80000288:	8fc40038 	lw	a0,56(s8)
8000028c:	0c000066 	jal	80000198 <get_input>
80000290:	00000000 	nop
80000294:	afc20018 	sw	v0,24(s8)
80000298:	3c028000 	lui	v0,0x8000
8000029c:	34428f60 	ori	v0,v0,0x8f60
800002a0:	afc2001c 	sw	v0,28(s8)
800002a4:	8fc20018 	lw	v0,24(s8)
800002a8:	1040002d 	beqz	v0,80000360 <copy+0xf4>
800002ac:	00000000 	nop
800002b0:	8fc20018 	lw	v0,24(s8)
800002b4:	27c30020 	addiu	v1,s8,32
800002b8:	00403025 	move	a2,v0
800002bc:	00602825 	move	a1,v1
800002c0:	8fc4001c 	lw	a0,28(s8)
800002c4:	0c00010c 	jal	80000430 <memcpy>
800002c8:	00000000 	nop
800002cc:	24020001 	li	v0,1
800002d0:	afc20010 	sw	v0,16(s8)
800002d4:	afc00014 	sw	zero,20(s8)
800002d8:	10000011 	b	80000320 <copy+0xb4>
800002dc:	00000000 	nop
800002e0:	8fc20014 	lw	v0,20(s8)
800002e4:	8fc30038 	lw	v1,56(s8)
800002e8:	00621021 	addu	v0,v1,v0
800002ec:	80430000 	lb	v1,0(v0)
800002f0:	8fc20014 	lw	v0,20(s8)
800002f4:	8fc4001c 	lw	a0,28(s8)
800002f8:	00821021 	addu	v0,a0,v0
800002fc:	80420000 	lb	v0,0(v0)
80000300:	10620004 	beq	v1,v0,80000314 <copy+0xa8>
80000304:	00000000 	nop
80000308:	afc00010 	sw	zero,16(s8)
8000030c:	10000009 	b	80000334 <copy+0xc8>
80000310:	00000000 	nop
80000314:	8fc20014 	lw	v0,20(s8)
80000318:	24420001 	addiu	v0,v0,1
8000031c:	afc20014 	sw	v0,20(s8)
80000320:	8fc30014 	lw	v1,20(s8)
80000324:	8fc20018 	lw	v0,24(s8)
80000328:	0062102a 	slt	v0,v1,v0
8000032c:	1440ffec 	bnez	v0,800002e0 <copy+0x74>
80000330:	00000000 	nop
80000334:	8fc20010 	lw	v0,16(s8)
80000338:	10400005 	beqz	v0,80000350 <copy+0xe4>
8000033c:	00000000 	nop
80000340:	0c00004a 	jal	80000128 <success>
80000344:	00000000 	nop
80000348:	10000006 	b	80000364 <copy+0xf8>
8000034c:	00000000 	nop
80000350:	0c000058 	jal	80000160 <fail>
80000354:	00000000 	nop
80000358:	10000002 	b	80000364 <copy+0xf8>
8000035c:	00000000 	nop
80000360:	00000000 	nop
80000364:	03c0e825 	move	sp,s8
80000368:	8fbf0034 	lw	ra,52(sp)
8000036c:	8fbe0030 	lw	s8,48(sp)
80000370:	27bd0038 	addiu	sp,sp,56
80000374:	03e00008 	jr	ra
80000378:	00000000 	nop

8000037c <main>:
8000037c:	27bdffe0 	addiu	sp,sp,-32
80000380:	afbf001c 	sw	ra,28(sp)
80000384:	afbe0018 	sw	s8,24(sp)
80000388:	03a0f025 	move	s8,sp
8000038c:	3c028000 	lui	v0,0x8000
80000390:	24420710 	addiu	v0,v0,1808
80000394:	afc20010 	sw	v0,16(s8)
80000398:	8fc40010 	lw	a0,16(s8)
8000039c:	0c00009b 	jal	8000026c <copy>
800003a0:	00000000 	nop
800003a4:	00001025 	move	v0,zero
800003a8:	03c0e825 	move	sp,s8
800003ac:	8fbf001c 	lw	ra,28(sp)
800003b0:	8fbe0018 	lw	s8,24(sp)
800003b4:	27bd0020 	addiu	sp,sp,32
800003b8:	03e00008 	jr	ra
800003bc:	00000000 	nop

800003c0 <gadget>:
800003c0:	27bdfff8 	addiu	sp,sp,-8
800003c4:	afbe0004 	sw	s8,4(sp)
800003c8:	03a0f025 	move	s8,sp
800003cc:	3c085555 	lui	t0,0x5555
800003d0:	35085555 	ori	t0,t0,0x5555
800003d4:	3c098000 	lui	t1,0x8000
800003d8:	25298f34 	addiu	t1,t1,-28876
800003dc:	ad280000 	sw	t0,0(t1)
800003e0:	08000100 	j	80000400 <_etext>
800003e4:	00000000 	nop
800003e8:	00000000 	nop
800003ec:	03c0e825 	move	sp,s8
800003f0:	8fbe0004 	lw	s8,4(sp)
800003f4:	27bd0008 	addiu	sp,sp,8
800003f8:	03e00008 	jr	ra
800003fc:	00000000 	nop

Disassembly of section .text._halt:

80000400 <_halt>:
80000400:	3c02b000 	lui	v0,0xb000
80000404:	ac440000 	sw	a0,0(v0)
80000408:	1000ffff 	b	80000408 <_halt+0x8>
8000040c:	00000000 	nop

Disassembly of section .text._trm_init:

80000410 <_trm_init>:
80000410:	27bdffe8 	addiu	sp,sp,-24
80000414:	afbf0014 	sw	ra,20(sp)
80000418:	0c0000df 	jal	8000037c <main>
8000041c:	00000000 	nop
80000420:	3c03b000 	lui	v1,0xb000
80000424:	ac620000 	sw	v0,0(v1)
80000428:	1000ffff 	b	80000428 <_trm_init+0x18>
8000042c:	00000000 	nop

Disassembly of section .text.memcpy:

80000430 <memcpy>:
80000430:	2cc30020 	sltiu	v1,a2,32
80000434:	00801025 	move	v0,a0
80000438:	1460009b 	bnez	v1,800006a8 <memcpy+0x278>
8000043c:	00000000 	nop
80000440:	00851823 	subu	v1,a0,a1
80000444:	30640007 	andi	a0,v1,0x7
80000448:	1480004f 	bnez	a0,80000588 <memcpy+0x158>
8000044c:	00000000 	nop
80000450:	30470007 	andi	a3,v0,0x7
80000454:	00c73023 	subu	a2,a2,a3
80000458:	10e000a3 	beqz	a3,800006e8 <memcpy+0x2b8>
8000045c:	00000000 	nop
80000460:	00a75021 	addu	t2,a1,a3
80000464:	00401825 	move	v1,v0
80000468:	24a50001 	addiu	a1,a1,1
8000046c:	80a4ffff 	lb	a0,-1(a1)
80000470:	24630001 	addiu	v1,v1,1
80000474:	a064ffff 	sb	a0,-1(v1)
80000478:	14aafffb 	bne	a1,t2,80000468 <memcpy+0x38>
8000047c:	00000000 	nop
80000480:	00473821 	addu	a3,v0,a3
80000484:	2cc30020 	sltiu	v1,a2,32
80000488:	1460009b 	bnez	v1,800006f8 <memcpy+0x2c8>
8000048c:	00000000 	nop
80000490:	24c5ffe0 	addiu	a1,a2,-32
80000494:	00052942 	srl	a1,a1,0x5
80000498:	24a50001 	addiu	a1,a1,1
8000049c:	00054940 	sll	t1,a1,0x5
800004a0:	00e91821 	addu	v1,a3,t1
800004a4:	01404025 	move	t0,t2
800004a8:	8d040000 	lw	a0,0(t0)
800004ac:	8d050004 	lw	a1,4(t0)
800004b0:	ace40000 	sw	a0,0(a3)
800004b4:	ace50004 	sw	a1,4(a3)
800004b8:	25080020 	addiu	t0,t0,32
800004bc:	8d04ffe8 	lw	a0,-24(t0)
800004c0:	8d05ffec 	lw	a1,-20(t0)
800004c4:	24e70020 	addiu	a3,a3,32
800004c8:	ace4ffe8 	sw	a0,-24(a3)
800004cc:	ace5ffec 	sw	a1,-20(a3)
800004d0:	8d04fff0 	lw	a0,-16(t0)
800004d4:	8d05fff4 	lw	a1,-12(t0)
800004d8:	ace4fff0 	sw	a0,-16(a3)
800004dc:	ace5fff4 	sw	a1,-12(a3)
800004e0:	8d04fff8 	lw	a0,-8(t0)
800004e4:	8d05fffc 	lw	a1,-4(t0)
800004e8:	ace4fff8 	sw	a0,-8(a3)
800004ec:	ace5fffc 	sw	a1,-4(a3)
800004f0:	1467ffed 	bne	v1,a3,800004a8 <memcpy+0x78>
800004f4:	00000000 	nop
800004f8:	30c6001f 	andi	a2,a2,0x1f
800004fc:	2cc40008 	sltiu	a0,a2,8
80000500:	01492821 	addu	a1,t2,t1
80000504:	14800069 	bnez	a0,800006ac <memcpy+0x27c>
80000508:	00000000 	nop
8000050c:	00a05025 	move	t2,a1
80000510:	00c05825 	move	t3,a2
80000514:	00603825 	move	a3,v1
80000518:	24a50008 	addiu	a1,a1,8
8000051c:	8ca8fff8 	lw	t0,-8(a1)
80000520:	8ca9fffc 	lw	t1,-4(a1)
80000524:	24c6fff8 	addiu	a2,a2,-8
80000528:	24630008 	addiu	v1,v1,8
8000052c:	2cc40008 	sltiu	a0,a2,8
80000530:	ac68fff8 	sw	t0,-8(v1)
80000534:	ac69fffc 	sw	t1,-4(v1)
80000538:	1080fff7 	beqz	a0,80000518 <memcpy+0xe8>
8000053c:	00000000 	nop
80000540:	2565fff8 	addiu	a1,t3,-8
80000544:	000528c2 	srl	a1,a1,0x3
80000548:	24a50001 	addiu	a1,a1,1
8000054c:	000528c0 	sll	a1,a1,0x3
80000550:	31660007 	andi	a2,t3,0x7
80000554:	00e51821 	addu	v1,a3,a1
80000558:	01452821 	addu	a1,t2,a1
8000055c:	10c00050 	beqz	a2,800006a0 <memcpy+0x270>
80000560:	00000000 	nop
80000564:	00663021 	addu	a2,v1,a2
80000568:	24a50001 	addiu	a1,a1,1
8000056c:	80a7ffff 	lb	a3,-1(a1)
80000570:	24630001 	addiu	v1,v1,1
80000574:	a067ffff 	sb	a3,-1(v1)
80000578:	1466fffb 	bne	v1,a2,80000568 <memcpy+0x138>
8000057c:	00000000 	nop
80000580:	03e00008 	jr	ra
80000584:	00000000 	nop
80000588:	30630003 	andi	v1,v1,0x3
8000058c:	1460004b 	bnez	v1,800006bc <memcpy+0x28c>
80000590:	00000000 	nop
80000594:	30470003 	andi	a3,v0,0x3
80000598:	00c73023 	subu	a2,a2,a3
8000059c:	10e0004a 	beqz	a3,800006c8 <memcpy+0x298>
800005a0:	00000000 	nop
800005a4:	00a74821 	addu	t1,a1,a3
800005a8:	00401825 	move	v1,v0
800005ac:	24a50001 	addiu	a1,a1,1
800005b0:	80a4ffff 	lb	a0,-1(a1)
800005b4:	24630001 	addiu	v1,v1,1
800005b8:	a064ffff 	sb	a0,-1(v1)
800005bc:	14a9fffb 	bne	a1,t1,800005ac <memcpy+0x17c>
800005c0:	00000000 	nop
800005c4:	00473821 	addu	a3,v0,a3
800005c8:	2cc30020 	sltiu	v1,a2,32
800005cc:	14600042 	bnez	v1,800006d8 <memcpy+0x2a8>
800005d0:	00000000 	nop
800005d4:	24c5ffe0 	addiu	a1,a2,-32
800005d8:	00052942 	srl	a1,a1,0x5
800005dc:	24a50001 	addiu	a1,a1,1
800005e0:	00052940 	sll	a1,a1,0x5
800005e4:	00e51821 	addu	v1,a3,a1
800005e8:	01204025 	move	t0,t1
800005ec:	8d040000 	lw	a0,0(t0)
800005f0:	25080020 	addiu	t0,t0,32
800005f4:	ace40000 	sw	a0,0(a3)
800005f8:	8d04ffe4 	lw	a0,-28(t0)
800005fc:	24e70020 	addiu	a3,a3,32
80000600:	ace4ffe4 	sw	a0,-28(a3)
80000604:	8d04ffe8 	lw	a0,-24(t0)
80000608:	ace4ffe8 	sw	a0,-24(a3)
8000060c:	8d04ffec 	lw	a0,-20(t0)
80000610:	ace4ffec 	sw	a0,-20(a3)
80000614:	8d04fff0 	lw	a0,-16(t0)
80000618:	ace4fff0 	sw	a0,-16(a3)
8000061c:	8d04fff4 	lw	a0,-12(t0)
80000620:	ace4fff4 	sw	a0,-12(a3)
80000624:	8d04fff8 	lw	a0,-8(t0)
80000628:	ace4fff8 	sw	a0,-8(a3)
8000062c:	8d04fffc 	lw	a0,-4(t0)
80000630:	ace4fffc 	sw	a0,-4(a3)
80000634:	1467ffed 	bne	v1,a3,800005ec <memcpy+0x1bc>
80000638:	00000000 	nop
8000063c:	30c6001f 	andi	a2,a2,0x1f
80000640:	2cc40004 	sltiu	a0,a2,4
80000644:	01252821 	addu	a1,t1,a1
80000648:	14800018 	bnez	a0,800006ac <memcpy+0x27c>
8000064c:	00000000 	nop
80000650:	24cafffc 	addiu	t2,a2,-4
80000654:	000a5082 	srl	t2,t2,0x2
80000658:	000a2080 	sll	a0,t2,0x2
8000065c:	24690004 	addiu	t1,v1,4
80000660:	01244821 	addu	t1,t1,a0
80000664:	00603825 	move	a3,v1
80000668:	00a02025 	move	a0,a1
8000066c:	24840004 	addiu	a0,a0,4
80000670:	8c88fffc 	lw	t0,-4(a0)
80000674:	24e70004 	addiu	a3,a3,4
80000678:	ace8fffc 	sw	t0,-4(a3)
8000067c:	14e9fffb 	bne	a3,t1,8000066c <memcpy+0x23c>
80000680:	00000000 	nop
80000684:	25440001 	addiu	a0,t2,1
80000688:	00042080 	sll	a0,a0,0x2
8000068c:	30c60003 	andi	a2,a2,0x3
80000690:	00641821 	addu	v1,v1,a0
80000694:	00a42821 	addu	a1,a1,a0
80000698:	14c0ffb2 	bnez	a2,80000564 <memcpy+0x134>
8000069c:	00000000 	nop
800006a0:	03e00008 	jr	ra
800006a4:	00000000 	nop
800006a8:	00801825 	move	v1,a0
800006ac:	14c0ffad 	bnez	a2,80000564 <memcpy+0x134>
800006b0:	00000000 	nop
800006b4:	03e00008 	jr	ra
800006b8:	00000000 	nop
800006bc:	00401825 	move	v1,v0
800006c0:	1000ffa8 	b	80000564 <memcpy+0x134>
800006c4:	00000000 	nop
800006c8:	00a04825 	move	t1,a1
800006cc:	00403825 	move	a3,v0
800006d0:	1000ffbd 	b	800005c8 <memcpy+0x198>
800006d4:	00000000 	nop
800006d8:	01202825 	move	a1,t1
800006dc:	00e01825 	move	v1,a3
800006e0:	1000ffdb 	b	80000650 <memcpy+0x220>
800006e4:	00000000 	nop
800006e8:	00a05025 	move	t2,a1
800006ec:	00403825 	move	a3,v0
800006f0:	1000ff64 	b	80000484 <memcpy+0x54>
800006f4:	00000000 	nop
800006f8:	00c05825 	move	t3,a2
800006fc:	01402825 	move	a1,t2
80000700:	00e01825 	move	v1,a3
80000704:	1000ff84 	b	80000518 <memcpy+0xe8>
80000708:	00000000 	nop
