
/home/ucas/pocc/Verilog/nexus-am/tests/myAMapp/build/bug-mips32-npc.elf:     file format elf32-tradlittlemips


Disassembly of section .text:

80000000 <_start>:
80000000:	0000f025 	move	s8,zero
80000004:	3c1d8001 	lui	sp,0x8001
80000008:	27bd9000 	addiu	sp,sp,-28672
8000000c:	0c000150 	jal	80000540 <_trm_init>
80000010:	00000000 	nop
	...

80000020 <nemu_assert>:
80000020:	27bdffe8 	addiu	sp,sp,-24
80000024:	afbf0014 	sw	ra,20(sp)
80000028:	afbe0010 	sw	s8,16(sp)
8000002c:	03a0f025 	move	s8,sp
80000030:	afc40018 	sw	a0,24(s8)
80000034:	8fc20018 	lw	v0,24(s8)
80000038:	14400004 	bnez	v0,8000004c <nemu_assert+0x2c>
8000003c:	00000000 	nop
80000040:	24040001 	li	a0,1
80000044:	0c00014c 	jal	80000530 <_etext>
80000048:	00000000 	nop
8000004c:	00000000 	nop
80000050:	03c0e825 	move	sp,s8
80000054:	8fbf0014 	lw	ra,20(sp)
80000058:	8fbe0010 	lw	s8,16(sp)
8000005c:	27bd0018 	addiu	sp,sp,24
80000060:	03e00008 	jr	ra
80000064:	00000000 	nop

80000068 <success_nx_bit>:
80000068:	27bdfff8 	addiu	sp,sp,-8
8000006c:	afbe0004 	sw	s8,4(sp)
80000070:	03a0f025 	move	s8,sp
80000074:	3c08aaaa 	lui	t0,0xaaaa
80000078:	3508aaaa 	ori	t0,t0,0xaaaa
8000007c:	3c098000 	lui	t1,0x8000
80000080:	25298f20 	addiu	t1,t1,-28896
80000084:	ad280000 	sw	t0,0(t1)
80000088:	0800014c 	j	80000530 <_etext>
8000008c:	00000000 	nop
80000090:	00000000 	nop
80000094:	03c0e825 	move	sp,s8
80000098:	8fbe0004 	lw	s8,4(sp)
8000009c:	27bd0008 	addiu	sp,sp,8
800000a0:	03e00008 	jr	ra
800000a4:	00000000 	nop

800000a8 <success_shadow_stack>:
800000a8:	27bdfff8 	addiu	sp,sp,-8
800000ac:	afbe0004 	sw	s8,4(sp)
800000b0:	03a0f025 	move	s8,sp
800000b4:	3c08bbbb 	lui	t0,0xbbbb
800000b8:	3508bbbb 	ori	t0,t0,0xbbbb
800000bc:	3c098000 	lui	t1,0x8000
800000c0:	25298f24 	addiu	t1,t1,-28892
800000c4:	ad280000 	sw	t0,0(t1)
800000c8:	0800014c 	j	80000530 <_etext>
800000cc:	00000000 	nop
800000d0:	00000000 	nop
800000d4:	03c0e825 	move	sp,s8
800000d8:	8fbe0004 	lw	s8,4(sp)
800000dc:	27bd0008 	addiu	sp,sp,8
800000e0:	03e00008 	jr	ra
800000e4:	00000000 	nop

800000e8 <success_cfi>:
800000e8:	27bdfff8 	addiu	sp,sp,-8
800000ec:	afbe0004 	sw	s8,4(sp)
800000f0:	03a0f025 	move	s8,sp
800000f4:	3c08cccc 	lui	t0,0xcccc
800000f8:	3508cccc 	ori	t0,t0,0xcccc
800000fc:	3c098000 	lui	t1,0x8000
80000100:	25298f28 	addiu	t1,t1,-28888
80000104:	ad280000 	sw	t0,0(t1)
80000108:	0800014c 	j	80000530 <_etext>
8000010c:	00000000 	nop
80000110:	00000000 	nop
80000114:	03c0e825 	move	sp,s8
80000118:	8fbe0004 	lw	s8,4(sp)
8000011c:	27bd0008 	addiu	sp,sp,8
80000120:	03e00008 	jr	ra
80000124:	00000000 	nop

80000128 <success>:
80000128:	27bdfff8 	addiu	sp,sp,-8
8000012c:	afbe0004 	sw	s8,4(sp)
80000130:	03a0f025 	move	s8,sp
80000134:	3c086666 	lui	t0,0x6666
80000138:	35086666 	ori	t0,t0,0x6666
8000013c:	3c098000 	lui	t1,0x8000
80000140:	25298f00 	addiu	t1,t1,-28928
80000144:	ad280000 	sw	t0,0(t1)
80000148:	00000000 	nop
8000014c:	03c0e825 	move	sp,s8
80000150:	8fbe0004 	lw	s8,4(sp)
80000154:	27bd0008 	addiu	sp,sp,8
80000158:	03e00008 	jr	ra
8000015c:	00000000 	nop

80000160 <fail>:
80000160:	27bdfff8 	addiu	sp,sp,-8
80000164:	afbe0004 	sw	s8,4(sp)
80000168:	03a0f025 	move	s8,sp
8000016c:	3c08ffff 	lui	t0,0xffff
80000170:	3508ffff 	ori	t0,t0,0xffff
80000174:	3c098000 	lui	t1,0x8000
80000178:	25298f04 	addiu	t1,t1,-28924
8000017c:	ad280000 	sw	t0,0(t1)
80000180:	00000000 	nop
80000184:	03c0e825 	move	sp,s8
80000188:	8fbe0004 	lw	s8,4(sp)
8000018c:	27bd0008 	addiu	sp,sp,8
80000190:	03e00008 	jr	ra
80000194:	00000000 	nop

80000198 <get_input>:
80000198:	27bdfff0 	addiu	sp,sp,-16
8000019c:	afbe000c 	sw	s8,12(sp)
800001a0:	03a0f025 	move	s8,sp
800001a4:	afc40010 	sw	a0,16(s8)
800001a8:	afc50014 	sw	a1,20(s8)
800001ac:	afc00000 	sw	zero,0(s8)
800001b0:	8fc20000 	lw	v0,0(s8)
800001b4:	8fc30010 	lw	v1,16(s8)
800001b8:	00621021 	addu	v0,v1,v0
800001bc:	80420000 	lb	v0,0(v0)
800001c0:	14400016 	bnez	v0,8000021c <get_input+0x84>
800001c4:	00000000 	nop
800001c8:	8fc20000 	lw	v0,0(s8)
800001cc:	24420001 	addiu	v0,v0,1
800001d0:	8fc30010 	lw	v1,16(s8)
800001d4:	00621021 	addu	v0,v1,v0
800001d8:	80420000 	lb	v0,0(v0)
800001dc:	1440000f 	bnez	v0,8000021c <get_input+0x84>
800001e0:	00000000 	nop
800001e4:	8fc20000 	lw	v0,0(s8)
800001e8:	24420002 	addiu	v0,v0,2
800001ec:	8fc30010 	lw	v1,16(s8)
800001f0:	00621021 	addu	v0,v1,v0
800001f4:	80420000 	lb	v0,0(v0)
800001f8:	14400008 	bnez	v0,8000021c <get_input+0x84>
800001fc:	00000000 	nop
80000200:	8fc20000 	lw	v0,0(s8)
80000204:	24420003 	addiu	v0,v0,3
80000208:	8fc30010 	lw	v1,16(s8)
8000020c:	00621021 	addu	v0,v1,v0
80000210:	80420000 	lb	v0,0(v0)
80000214:	1040000e 	beqz	v0,80000250 <get_input+0xb8>
80000218:	00000000 	nop
8000021c:	8fc20000 	lw	v0,0(s8)
80000220:	8fc30010 	lw	v1,16(s8)
80000224:	00621821 	addu	v1,v1,v0
80000228:	8fc20000 	lw	v0,0(s8)
8000022c:	8fc40014 	lw	a0,20(s8)
80000230:	00821021 	addu	v0,a0,v0
80000234:	80630000 	lb	v1,0(v1)
80000238:	a0430000 	sb	v1,0(v0)
8000023c:	8fc20000 	lw	v0,0(s8)
80000240:	24420001 	addiu	v0,v0,1
80000244:	afc20000 	sw	v0,0(s8)
80000248:	1000ffd9 	b	800001b0 <get_input+0x18>
8000024c:	00000000 	nop
80000250:	00000000 	nop
80000254:	8fc20000 	lw	v0,0(s8)
80000258:	03c0e825 	move	sp,s8
8000025c:	8fbe000c 	lw	s8,12(sp)
80000260:	27bd0010 	addiu	sp,sp,16
80000264:	03e00008 	jr	ra
80000268:	00000000 	nop

8000026c <cmp_key_full>:
8000026c:	27bdfff0 	addiu	sp,sp,-16
80000270:	afbe000c 	sw	s8,12(sp)
80000274:	03a0f025 	move	s8,sp
80000278:	afc40010 	sw	a0,16(s8)
8000027c:	afc50014 	sw	a1,20(s8)
80000280:	24020001 	li	v0,1
80000284:	afc20000 	sw	v0,0(s8)
80000288:	afc00004 	sw	zero,4(s8)
8000028c:	10000011 	b	800002d4 <cmp_key_full+0x68>
80000290:	00000000 	nop
80000294:	8fc20004 	lw	v0,4(s8)
80000298:	8fc30010 	lw	v1,16(s8)
8000029c:	00621021 	addu	v0,v1,v0
800002a0:	80430000 	lb	v1,0(v0)
800002a4:	8fc20004 	lw	v0,4(s8)
800002a8:	8fc40014 	lw	a0,20(s8)
800002ac:	00821021 	addu	v0,a0,v0
800002b0:	80420000 	lb	v0,0(v0)
800002b4:	10620004 	beq	v1,v0,800002c8 <cmp_key_full+0x5c>
800002b8:	00000000 	nop
800002bc:	afc00000 	sw	zero,0(s8)
800002c0:	10000008 	b	800002e4 <cmp_key_full+0x78>
800002c4:	00000000 	nop
800002c8:	8fc20004 	lw	v0,4(s8)
800002cc:	24420001 	addiu	v0,v0,1
800002d0:	afc20004 	sw	v0,4(s8)
800002d4:	8fc20004 	lw	v0,4(s8)
800002d8:	28420020 	slti	v0,v0,32
800002dc:	1440ffed 	bnez	v0,80000294 <cmp_key_full+0x28>
800002e0:	00000000 	nop
800002e4:	8fc20000 	lw	v0,0(s8)
800002e8:	03c0e825 	move	sp,s8
800002ec:	8fbe000c 	lw	s8,12(sp)
800002f0:	27bd0010 	addiu	sp,sp,16
800002f4:	03e00008 	jr	ra
800002f8:	00000000 	nop

800002fc <cmp_key_fast>:
800002fc:	27bdfff0 	addiu	sp,sp,-16
80000300:	afbe000c 	sw	s8,12(sp)
80000304:	03a0f025 	move	s8,sp
80000308:	afc40010 	sw	a0,16(s8)
8000030c:	afc50014 	sw	a1,20(s8)
80000310:	24020001 	li	v0,1
80000314:	afc20000 	sw	v0,0(s8)
80000318:	afc00004 	sw	zero,4(s8)
8000031c:	10000011 	b	80000364 <cmp_key_fast+0x68>
80000320:	00000000 	nop
80000324:	8fc20004 	lw	v0,4(s8)
80000328:	8fc30010 	lw	v1,16(s8)
8000032c:	00621021 	addu	v0,v1,v0
80000330:	80430000 	lb	v1,0(v0)
80000334:	8fc20004 	lw	v0,4(s8)
80000338:	8fc40014 	lw	a0,20(s8)
8000033c:	00821021 	addu	v0,a0,v0
80000340:	80420000 	lb	v0,0(v0)
80000344:	10620004 	beq	v1,v0,80000358 <cmp_key_fast+0x5c>
80000348:	00000000 	nop
8000034c:	afc00000 	sw	zero,0(s8)
80000350:	10000008 	b	80000374 <cmp_key_fast+0x78>
80000354:	00000000 	nop
80000358:	8fc20004 	lw	v0,4(s8)
8000035c:	24420001 	addiu	v0,v0,1
80000360:	afc20004 	sw	v0,4(s8)
80000364:	8fc20004 	lw	v0,4(s8)
80000368:	28420004 	slti	v0,v0,4
8000036c:	1440ffed 	bnez	v0,80000324 <cmp_key_fast+0x28>
80000370:	00000000 	nop
80000374:	8fc20000 	lw	v0,0(s8)
80000378:	03c0e825 	move	sp,s8
8000037c:	8fbe000c 	lw	s8,12(sp)
80000380:	27bd0010 	addiu	sp,sp,16
80000384:	03e00008 	jr	ra
80000388:	00000000 	nop

8000038c <check>:
8000038c:	27bdffa8 	addiu	sp,sp,-88
80000390:	afbf0054 	sw	ra,84(sp)
80000394:	afbe0050 	sw	s8,80(sp)
80000398:	03a0f025 	move	s8,sp
8000039c:	afc40058 	sw	a0,88(s8)
800003a0:	afc5005c 	sw	a1,92(s8)
800003a4:	3c028000 	lui	v0,0x8000
800003a8:	8c490560 	lw	t1,1376(v0)
800003ac:	24430560 	addiu	v1,v0,1376
800003b0:	8c680004 	lw	t0,4(v1)
800003b4:	24430560 	addiu	v1,v0,1376
800003b8:	8c670008 	lw	a3,8(v1)
800003bc:	24430560 	addiu	v1,v0,1376
800003c0:	8c66000c 	lw	a2,12(v1)
800003c4:	24430560 	addiu	v1,v0,1376
800003c8:	8c650010 	lw	a1,16(v1)
800003cc:	24430560 	addiu	v1,v0,1376
800003d0:	8c640014 	lw	a0,20(v1)
800003d4:	24430560 	addiu	v1,v0,1376
800003d8:	8c630018 	lw	v1,24(v1)
800003dc:	24420560 	addiu	v0,v0,1376
800003e0:	8c42001c 	lw	v0,28(v0)
800003e4:	afc90010 	sw	t1,16(s8)
800003e8:	afc80014 	sw	t0,20(s8)
800003ec:	afc70018 	sw	a3,24(s8)
800003f0:	afc6001c 	sw	a2,28(s8)
800003f4:	afc50020 	sw	a1,32(s8)
800003f8:	afc40024 	sw	a0,36(s8)
800003fc:	afc30028 	sw	v1,40(s8)
80000400:	afc2002c 	sw	v0,44(s8)
80000404:	3c028000 	lui	v0,0x8000
80000408:	8c490580 	lw	t1,1408(v0)
8000040c:	24430580 	addiu	v1,v0,1408
80000410:	8c680004 	lw	t0,4(v1)
80000414:	24430580 	addiu	v1,v0,1408
80000418:	8c670008 	lw	a3,8(v1)
8000041c:	24430580 	addiu	v1,v0,1408
80000420:	8c66000c 	lw	a2,12(v1)
80000424:	24430580 	addiu	v1,v0,1408
80000428:	8c650010 	lw	a1,16(v1)
8000042c:	24430580 	addiu	v1,v0,1408
80000430:	8c640014 	lw	a0,20(v1)
80000434:	24430580 	addiu	v1,v0,1408
80000438:	8c630018 	lw	v1,24(v1)
8000043c:	24420580 	addiu	v0,v0,1408
80000440:	8c42001c 	lw	v0,28(v0)
80000444:	afc90030 	sw	t1,48(s8)
80000448:	afc80034 	sw	t0,52(s8)
8000044c:	afc70038 	sw	a3,56(s8)
80000450:	afc6003c 	sw	a2,60(s8)
80000454:	afc50040 	sw	a1,64(s8)
80000458:	afc40044 	sw	a0,68(s8)
8000045c:	afc30048 	sw	v1,72(s8)
80000460:	afc2004c 	sw	v0,76(s8)
80000464:	27c20010 	addiu	v0,s8,16
80000468:	00402825 	move	a1,v0
8000046c:	8fc40058 	lw	a0,88(s8)
80000470:	0c000066 	jal	80000198 <get_input>
80000474:	00000000 	nop
80000478:	27c30030 	addiu	v1,s8,48
8000047c:	8fc2005c 	lw	v0,92(s8)
80000480:	00602825 	move	a1,v1
80000484:	27c30010 	addiu	v1,s8,16
80000488:	00602025 	move	a0,v1
8000048c:	0040f809 	jalr	v0
80000490:	00000000 	nop
80000494:	03c0e825 	move	sp,s8
80000498:	8fbf0054 	lw	ra,84(sp)
8000049c:	8fbe0050 	lw	s8,80(sp)
800004a0:	27bd0058 	addiu	sp,sp,88
800004a4:	03e00008 	jr	ra
800004a8:	00000000 	nop

800004ac <main>:
800004ac:	27bdffe0 	addiu	sp,sp,-32
800004b0:	afbf001c 	sw	ra,28(sp)
800004b4:	afbe0018 	sw	s8,24(sp)
800004b8:	03a0f025 	move	s8,sp
800004bc:	3c028000 	lui	v0,0x8000
800004c0:	244205a0 	addiu	v0,v0,1440
800004c4:	afc20010 	sw	v0,16(s8)
800004c8:	afc00014 	sw	zero,20(s8)
800004cc:	3c028000 	lui	v0,0x8000
800004d0:	2442026c 	addiu	v0,v0,620
800004d4:	afc20014 	sw	v0,20(s8)
800004d8:	8fc50014 	lw	a1,20(s8)
800004dc:	8fc40010 	lw	a0,16(s8)
800004e0:	0c0000e3 	jal	8000038c <check>
800004e4:	00000000 	nop
800004e8:	10400005 	beqz	v0,80000500 <main+0x54>
800004ec:	00000000 	nop
800004f0:	0c00004a 	jal	80000128 <success>
800004f4:	00000000 	nop
800004f8:	10000003 	b	80000508 <main+0x5c>
800004fc:	00000000 	nop
80000500:	0c000058 	jal	80000160 <fail>
80000504:	00000000 	nop
80000508:	00001025 	move	v0,zero
8000050c:	03c0e825 	move	sp,s8
80000510:	8fbf001c 	lw	ra,28(sp)
80000514:	8fbe0018 	lw	s8,24(sp)
80000518:	27bd0020 	addiu	sp,sp,32
8000051c:	03e00008 	jr	ra
80000520:	00000000 	nop
	...

Disassembly of section .text._halt:

80000530 <_halt>:
80000530:	3c02b000 	lui	v0,0xb000
80000534:	ac440000 	sw	a0,0(v0)
80000538:	1000ffff 	b	80000538 <_halt+0x8>
8000053c:	00000000 	nop

Disassembly of section .text._trm_init:

80000540 <_trm_init>:
80000540:	27bdffe8 	addiu	sp,sp,-24
80000544:	afbf0014 	sw	ra,20(sp)
80000548:	0c00012b 	jal	800004ac <main>
8000054c:	00000000 	nop
80000550:	3c03b000 	lui	v1,0xb000
80000554:	ac620000 	sw	v0,0(v1)
80000558:	1000ffff 	b	80000558 <_trm_init+0x18>
8000055c:	00000000 	nop
