
/home/ucas/pocc/Verilog/nexus-am/tests/myAMapp/build/bug-mips32-npc.elf:     file format elf32-tradlittlemips


Disassembly of section .text:

80000000 <_start>:
80000000:	0000f025 	move	s8,zero
80000004:	3c1d8001 	lui	sp,0x8001
80000008:	27bd9000 	addiu	sp,sp,-28672
8000000c:	0c000124 	jal	80000490 <_trm_init>
80000010:	00000000 	nop
	...

80000020 <nemu_assert>:
80000020:	27bdffe8 	addiu	sp,sp,-24
80000024:	afbf0014 	sw	ra,20(sp)
80000028:	afbe0010 	sw	s8,16(sp)
8000002c:	03a0f025 	move	s8,sp
80000030:	afc40018 	sw	a0,24(s8)
80000034:	8fc20018 	lw	v0,24(s8)
80000038:	14400004 	bnez	v0,8000004c <nemu_assert+0x2c>
8000003c:	00000000 	nop
80000040:	24040001 	li	a0,1
80000044:	0c000120 	jal	80000480 <_etext>
80000048:	00000000 	nop
8000004c:	00000000 	nop
80000050:	03c0e825 	move	sp,s8
80000054:	8fbf0014 	lw	ra,20(sp)
80000058:	8fbe0010 	lw	s8,16(sp)
8000005c:	27bd0018 	addiu	sp,sp,24
80000060:	03e00008 	jr	ra
80000064:	00000000 	nop

80000068 <success_nx_bit>:
80000068:	27bdfff8 	addiu	sp,sp,-8
8000006c:	afbe0004 	sw	s8,4(sp)
80000070:	03a0f025 	move	s8,sp
80000074:	3c08aaaa 	lui	t0,0xaaaa
80000078:	3508aaaa 	ori	t0,t0,0xaaaa
8000007c:	3c098000 	lui	t1,0x8000
80000080:	25298f20 	addiu	t1,t1,-28896
80000084:	ad280000 	sw	t0,0(t1)
80000088:	08000120 	j	80000480 <_etext>
8000008c:	00000000 	nop
80000090:	00000000 	nop
80000094:	03c0e825 	move	sp,s8
80000098:	8fbe0004 	lw	s8,4(sp)
8000009c:	27bd0008 	addiu	sp,sp,8
800000a0:	03e00008 	jr	ra
800000a4:	00000000 	nop

800000a8 <success_shadow_stack>:
800000a8:	27bdfff8 	addiu	sp,sp,-8
800000ac:	afbe0004 	sw	s8,4(sp)
800000b0:	03a0f025 	move	s8,sp
800000b4:	3c08bbbb 	lui	t0,0xbbbb
800000b8:	3508bbbb 	ori	t0,t0,0xbbbb
800000bc:	3c098000 	lui	t1,0x8000
800000c0:	25298f24 	addiu	t1,t1,-28892
800000c4:	ad280000 	sw	t0,0(t1)
800000c8:	08000120 	j	80000480 <_etext>
800000cc:	00000000 	nop
800000d0:	00000000 	nop
800000d4:	03c0e825 	move	sp,s8
800000d8:	8fbe0004 	lw	s8,4(sp)
800000dc:	27bd0008 	addiu	sp,sp,8
800000e0:	03e00008 	jr	ra
800000e4:	00000000 	nop

800000e8 <success_cfi>:
800000e8:	27bdfff8 	addiu	sp,sp,-8
800000ec:	afbe0004 	sw	s8,4(sp)
800000f0:	03a0f025 	move	s8,sp
800000f4:	3c08cccc 	lui	t0,0xcccc
800000f8:	3508cccc 	ori	t0,t0,0xcccc
800000fc:	3c098000 	lui	t1,0x8000
80000100:	25298f28 	addiu	t1,t1,-28888
80000104:	ad280000 	sw	t0,0(t1)
80000108:	08000120 	j	80000480 <_etext>
8000010c:	00000000 	nop
80000110:	00000000 	nop
80000114:	03c0e825 	move	sp,s8
80000118:	8fbe0004 	lw	s8,4(sp)
8000011c:	27bd0008 	addiu	sp,sp,8
80000120:	03e00008 	jr	ra
80000124:	00000000 	nop

80000128 <exit>:
80000128:	27bdfff8 	addiu	sp,sp,-8
8000012c:	afbe0004 	sw	s8,4(sp)
80000130:	03a0f025 	move	s8,sp
80000134:	24000000 	li	zero,0
80000138:	00000000 	nop
8000013c:	03c0e825 	move	sp,s8
80000140:	8fbe0004 	lw	s8,4(sp)
80000144:	27bd0008 	addiu	sp,sp,8
80000148:	03e00008 	jr	ra
8000014c:	00000000 	nop

80000150 <fail>:
80000150:	27bdfff8 	addiu	sp,sp,-8
80000154:	afbe0004 	sw	s8,4(sp)
80000158:	03a0f025 	move	s8,sp
8000015c:	3c08ffff 	lui	t0,0xffff
80000160:	3508ffff 	ori	t0,t0,0xffff
80000164:	3c098000 	lui	t1,0x8000
80000168:	25298f04 	addiu	t1,t1,-28924
8000016c:	ad280000 	sw	t0,0(t1)
80000170:	00000000 	nop
80000174:	03c0e825 	move	sp,s8
80000178:	8fbe0004 	lw	s8,4(sp)
8000017c:	27bd0008 	addiu	sp,sp,8
80000180:	03e00008 	jr	ra
80000184:	00000000 	nop

80000188 <func_1>:
80000188:	27bdffe8 	addiu	sp,sp,-24
8000018c:	afbf0014 	sw	ra,20(sp)
80000190:	afbe0010 	sw	s8,16(sp)
80000194:	03a0f025 	move	s8,sp
80000198:	3c081111 	lui	t0,0x1111
8000019c:	35081111 	ori	t0,t0,0x1111
800001a0:	3c098000 	lui	t1,0x8000
800001a4:	25298f10 	addiu	t1,t1,-28912
800001a8:	ad280000 	sw	t0,0(t1)
800001ac:	0c00004a 	jal	80000128 <exit>
800001b0:	00000000 	nop
800001b4:	00000000 	nop
800001b8:	03c0e825 	move	sp,s8
800001bc:	8fbf0014 	lw	ra,20(sp)
800001c0:	8fbe0010 	lw	s8,16(sp)
800001c4:	27bd0018 	addiu	sp,sp,24
800001c8:	03e00008 	jr	ra
800001cc:	00000000 	nop

800001d0 <func_2>:
800001d0:	27bdffe8 	addiu	sp,sp,-24
800001d4:	afbf0014 	sw	ra,20(sp)
800001d8:	afbe0010 	sw	s8,16(sp)
800001dc:	03a0f025 	move	s8,sp
800001e0:	3c082222 	lui	t0,0x2222
800001e4:	35082222 	ori	t0,t0,0x2222
800001e8:	3c098000 	lui	t1,0x8000
800001ec:	25298f14 	addiu	t1,t1,-28908
800001f0:	ad280000 	sw	t0,0(t1)
800001f4:	0c00004a 	jal	80000128 <exit>
800001f8:	00000000 	nop
800001fc:	00000000 	nop
80000200:	03c0e825 	move	sp,s8
80000204:	8fbf0014 	lw	ra,20(sp)
80000208:	8fbe0010 	lw	s8,16(sp)
8000020c:	27bd0018 	addiu	sp,sp,24
80000210:	03e00008 	jr	ra
80000214:	00000000 	nop

80000218 <func_3>:
80000218:	27bdffe8 	addiu	sp,sp,-24
8000021c:	afbf0014 	sw	ra,20(sp)
80000220:	afbe0010 	sw	s8,16(sp)
80000224:	03a0f025 	move	s8,sp
80000228:	3c083333 	lui	t0,0x3333
8000022c:	35083333 	ori	t0,t0,0x3333
80000230:	3c098000 	lui	t1,0x8000
80000234:	25298f18 	addiu	t1,t1,-28904
80000238:	ad280000 	sw	t0,0(t1)
8000023c:	0c00004a 	jal	80000128 <exit>
80000240:	00000000 	nop
80000244:	00000000 	nop
80000248:	03c0e825 	move	sp,s8
8000024c:	8fbf0014 	lw	ra,20(sp)
80000250:	8fbe0010 	lw	s8,16(sp)
80000254:	27bd0018 	addiu	sp,sp,24
80000258:	03e00008 	jr	ra
8000025c:	00000000 	nop

80000260 <get_input>:
80000260:	27bdfff0 	addiu	sp,sp,-16
80000264:	afbe000c 	sw	s8,12(sp)
80000268:	03a0f025 	move	s8,sp
8000026c:	afc40010 	sw	a0,16(s8)
80000270:	afc50014 	sw	a1,20(s8)
80000274:	afc00000 	sw	zero,0(s8)
80000278:	8fc20000 	lw	v0,0(s8)
8000027c:	8fc30010 	lw	v1,16(s8)
80000280:	00621021 	addu	v0,v1,v0
80000284:	80420000 	lb	v0,0(v0)
80000288:	14400016 	bnez	v0,800002e4 <get_input+0x84>
8000028c:	00000000 	nop
80000290:	8fc20000 	lw	v0,0(s8)
80000294:	24420001 	addiu	v0,v0,1
80000298:	8fc30010 	lw	v1,16(s8)
8000029c:	00621021 	addu	v0,v1,v0
800002a0:	80420000 	lb	v0,0(v0)
800002a4:	1440000f 	bnez	v0,800002e4 <get_input+0x84>
800002a8:	00000000 	nop
800002ac:	8fc20000 	lw	v0,0(s8)
800002b0:	24420002 	addiu	v0,v0,2
800002b4:	8fc30010 	lw	v1,16(s8)
800002b8:	00621021 	addu	v0,v1,v0
800002bc:	80420000 	lb	v0,0(v0)
800002c0:	14400008 	bnez	v0,800002e4 <get_input+0x84>
800002c4:	00000000 	nop
800002c8:	8fc20000 	lw	v0,0(s8)
800002cc:	24420003 	addiu	v0,v0,3
800002d0:	8fc30010 	lw	v1,16(s8)
800002d4:	00621021 	addu	v0,v1,v0
800002d8:	80420000 	lb	v0,0(v0)
800002dc:	1040000e 	beqz	v0,80000318 <get_input+0xb8>
800002e0:	00000000 	nop
800002e4:	8fc20000 	lw	v0,0(s8)
800002e8:	8fc30010 	lw	v1,16(s8)
800002ec:	00621821 	addu	v1,v1,v0
800002f0:	8fc20000 	lw	v0,0(s8)
800002f4:	8fc40014 	lw	a0,20(s8)
800002f8:	00821021 	addu	v0,a0,v0
800002fc:	80630000 	lb	v1,0(v1)
80000300:	a0430000 	sb	v1,0(v0)
80000304:	8fc20000 	lw	v0,0(s8)
80000308:	24420001 	addiu	v0,v0,1
8000030c:	afc20000 	sw	v0,0(s8)
80000310:	1000ffd9 	b	80000278 <get_input+0x18>
80000314:	00000000 	nop
80000318:	00000000 	nop
8000031c:	8fc20000 	lw	v0,0(s8)
80000320:	03c0e825 	move	sp,s8
80000324:	8fbe000c 	lw	s8,12(sp)
80000328:	27bd0010 	addiu	sp,sp,16
8000032c:	03e00008 	jr	ra
80000330:	00000000 	nop

80000334 <parse>:
80000334:	27bdffe0 	addiu	sp,sp,-32
80000338:	afbf001c 	sw	ra,28(sp)
8000033c:	afbe0018 	sw	s8,24(sp)
80000340:	03a0f025 	move	s8,sp
80000344:	afc40020 	sw	a0,32(s8)
80000348:	27c20010 	addiu	v0,s8,16
8000034c:	00402825 	move	a1,v0
80000350:	8fc40020 	lw	a0,32(s8)
80000354:	0c000098 	jal	80000260 <get_input>
80000358:	00000000 	nop
8000035c:	83c30010 	lb	v1,16(s8)
80000360:	24020031 	li	v0,49
80000364:	14620004 	bne	v1,v0,80000378 <parse+0x44>
80000368:	00000000 	nop
8000036c:	24020001 	li	v0,1
80000370:	10000010 	b	800003b4 <parse+0x80>
80000374:	00000000 	nop
80000378:	83c30010 	lb	v1,16(s8)
8000037c:	24020032 	li	v0,50
80000380:	14620004 	bne	v1,v0,80000394 <parse+0x60>
80000384:	00000000 	nop
80000388:	24020002 	li	v0,2
8000038c:	10000009 	b	800003b4 <parse+0x80>
80000390:	00000000 	nop
80000394:	83c30010 	lb	v1,16(s8)
80000398:	24020033 	li	v0,51
8000039c:	14620004 	bne	v1,v0,800003b0 <parse+0x7c>
800003a0:	00000000 	nop
800003a4:	24020003 	li	v0,3
800003a8:	10000002 	b	800003b4 <parse+0x80>
800003ac:	00000000 	nop
800003b0:	2402ffff 	li	v0,-1
800003b4:	03c0e825 	move	sp,s8
800003b8:	8fbf001c 	lw	ra,28(sp)
800003bc:	8fbe0018 	lw	s8,24(sp)
800003c0:	27bd0020 	addiu	sp,sp,32
800003c4:	03e00008 	jr	ra
800003c8:	00000000 	nop

800003cc <main>:
800003cc:	27bdffe0 	addiu	sp,sp,-32
800003d0:	afbf001c 	sw	ra,28(sp)
800003d4:	afbe0018 	sw	s8,24(sp)
800003d8:	03a0f025 	move	s8,sp
800003dc:	3c028000 	lui	v0,0x8000
800003e0:	244204b0 	addiu	v0,v0,1200
800003e4:	afc20010 	sw	v0,16(s8)
800003e8:	8fc40010 	lw	a0,16(s8)
800003ec:	0c0000cd 	jal	80000334 <parse>
800003f0:	00000000 	nop
800003f4:	afc20014 	sw	v0,20(s8)
800003f8:	8fc30014 	lw	v1,20(s8)
800003fc:	24020001 	li	v0,1
80000400:	14620005 	bne	v1,v0,80000418 <main+0x4c>
80000404:	00000000 	nop
80000408:	0c000062 	jal	80000188 <func_1>
8000040c:	00000000 	nop
80000410:	10000013 	b	80000460 <main+0x94>
80000414:	00000000 	nop
80000418:	8fc30014 	lw	v1,20(s8)
8000041c:	24020002 	li	v0,2
80000420:	14620005 	bne	v1,v0,80000438 <main+0x6c>
80000424:	00000000 	nop
80000428:	0c000074 	jal	800001d0 <func_2>
8000042c:	00000000 	nop
80000430:	1000000b 	b	80000460 <main+0x94>
80000434:	00000000 	nop
80000438:	8fc30014 	lw	v1,20(s8)
8000043c:	24020003 	li	v0,3
80000440:	14620005 	bne	v1,v0,80000458 <main+0x8c>
80000444:	00000000 	nop
80000448:	0c000086 	jal	80000218 <func_3>
8000044c:	00000000 	nop
80000450:	10000003 	b	80000460 <main+0x94>
80000454:	00000000 	nop
80000458:	0c000054 	jal	80000150 <fail>
8000045c:	00000000 	nop
80000460:	00001025 	move	v0,zero
80000464:	03c0e825 	move	sp,s8
80000468:	8fbf001c 	lw	ra,28(sp)
8000046c:	8fbe0018 	lw	s8,24(sp)
80000470:	27bd0020 	addiu	sp,sp,32
80000474:	03e00008 	jr	ra
80000478:	00000000 	nop
8000047c:	00000000 	nop

Disassembly of section .text._halt:

80000480 <_halt>:
80000480:	3c02b000 	lui	v0,0xb000
80000484:	ac440000 	sw	a0,0(v0)
80000488:	1000ffff 	b	80000488 <_halt+0x8>
8000048c:	00000000 	nop

Disassembly of section .text._trm_init:

80000490 <_trm_init>:
80000490:	27bdffe8 	addiu	sp,sp,-24
80000494:	afbf0014 	sw	ra,20(sp)
80000498:	0c0000f3 	jal	800003cc <main>
8000049c:	00000000 	nop
800004a0:	3c03b000 	lui	v1,0xb000
800004a4:	ac620000 	sw	v0,0(v1)
800004a8:	1000ffff 	b	800004a8 <_trm_init+0x18>
800004ac:	00000000 	nop
